; Function Attrs: mustprogress nounwind uwtable
define dso_local void @_ZN4node9inspector8protocol5Value15serializeToJSONB5cxx11Ev(ptr noalias sret(%"class.std::__cxx11::basic_string") align 8 %agg.result, ptr noundef nonnull align 8 dereferenceable(12) %this) unnamed_addr #1 align 2 {
entry:
  %result.i = alloca %"class.std::__cxx11::basic_ostringstream", align 8
  call void @llvm.lifetime.start.p0(i64 376, ptr nonnull %result.i)
  call void @_ZNSt7__cxx1119basic_ostringstreamIcSt11char_traitsIcESaIcEEC1Ev(ptr noundef nonnull align 8 dereferenceable(112) %result.i) #27, !noalias !16
  %vtable.i = load ptr, ptr %this, align 8, !noalias !16
  %vfn.i = getelementptr inbounds i8, ptr %vtable.i, i64 72
  %0 = load ptr, ptr %vfn.i, align 8, !noalias !16
  call void %0(ptr noundef nonnull align 8 dereferenceable(12) %this, ptr noundef nonnull %result.i) #27, !noalias !16
  call void @_ZNKSt7__cxx1119basic_ostringstreamIcSt11char_traitsIcESaIcEE3strEv(ptr sret(%"class.std::__cxx11::basic_string") align 8 %agg.result, ptr noundef nonnull align 8 dereferenceable(112) %result.i) #27
  call void @_ZNSt7__cxx1119basic_ostringstreamIcSt11char_traitsIcESaIcEED1Ev(ptr noundef nonnull align 8 dereferenceable(112) %result.i) #27
  call void @llvm.lifetime.end.p0(i64 376, ptr nonnull %result.i)
  ret void
}